target datalayout = "e-m:e-p270:32:32-p271:32:32-p272:64:64-i64:64-i128:128-f80:128-n8:16:32:64-S128"
target triple = "x86_64-unknown-linux-gnu"

; Function Attrs: mustprogress nounwind uwtable
define internal noundef signext i8 @_ZL9U_FAILURE10UErrorCode(i32 noundef %code) #0 {
entry:
  %code.addr = alloca i32, align 4
  store i32 %code, ptr %code.addr, align 4
  %0 = load i32, ptr %code.addr, align 4
  %cmp = icmp sgt i32 %0, 0
  %conv = zext i1 %cmp to i8
  ret i8 %conv
}

; Function Attrs: mustprogress uwtable
define noundef signext i8 @_ZN6icu_7512ByteSinkUtil12appendChangeEiPKDsiRNS_8ByteSinkEPNS_5EditsER10UErrorCode(i32 noundef %length, ptr noundef %s16, i32 noundef %s16Length, ptr noundef nonnull align 8 dereferenceable(8) %sink, ptr noundef %edits, ptr noundef nonnull align 4 dereferenceable(4) %errorCode) #1 align 2 {
entry:
  %retval = alloca i8, align 1
  %length.addr = alloca i32, align 4
  %s16.addr = alloca ptr, align 8
  %s16Length.addr = alloca i32, align 4
  %sink.addr = alloca ptr, align 8
  %edits.addr = alloca ptr, align 8
  %errorCode.addr = alloca ptr, align 8
  %scratch = alloca [200 x i8], align 16
  %s8Length = alloca i32, align 4
  %i = alloca i32, align 4
  %capacity = alloca i32, align 4
  %desiredCapacity = alloca i32, align 4
  %buffer = alloca ptr, align 8
  %j = alloca i32, align 4
  %c = alloca i32, align 4
  %__uc = alloca i32, align 4
  store i32 %length, ptr %length.addr, align 4
  store ptr %s16, ptr %s16.addr, align 8
  store i32 %s16Length, ptr %s16Length.addr, align 4
  store ptr %sink, ptr %sink.addr, align 8
  store ptr %edits, ptr %edits.addr, align 8
  store ptr %errorCode, ptr %errorCode.addr, align 8
  %0 = load ptr, ptr %errorCode.addr, align 8
  %1 = load i32, ptr %0, align 4
  %call = call noundef signext i8 @_ZL9U_FAILURE10UErrorCode(i32 noundef %1)
  %tobool = icmp ne i8 %call, 0
  br i1 %tobool, label %if.then, label %if.end

if.then:                                          ; preds = %entry
  store i8 0, ptr %retval, align 1
  br label %return

if.end:                                           ; preds = %entry
  store i32 0, ptr %s8Length, align 4
  store i32 0, ptr %i, align 4
  br label %for.cond

for.cond:                                         ; preds = %if.end80, %if.end
  %2 = load i32, ptr %i, align 4
  %3 = load i32, ptr %s16Length.addr, align 4
  %cmp = icmp slt i32 %2, %3
  br i1 %cmp, label %for.body, label %for.end84

for.body:                                         ; preds = %for.cond
  %4 = load i32, ptr %s16Length.addr, align 4
  %5 = load i32, ptr %i, align 4
  %sub = sub nsw i32 %4, %5
  store i32 %sub, ptr %desiredCapacity, align 4
  %6 = load i32, ptr %desiredCapacity, align 4
  %cmp1 = icmp slt i32 %6, 715827882
  br i1 %cmp1, label %if.then2, label %if.else

if.then2:                                         ; preds = %for.body
  %7 = load i32, ptr %desiredCapacity, align 4
  %mul = mul nsw i32 %7, 3
  store i32 %mul, ptr %desiredCapacity, align 4
  br label %if.end8

if.else:                                          ; preds = %for.body
  %8 = load i32, ptr %desiredCapacity, align 4
  %cmp3 = icmp slt i32 %8, 1073741823
  br i1 %cmp3, label %if.then4, label %if.else6

if.then4:                                         ; preds = %if.else
  %9 = load i32, ptr %desiredCapacity, align 4
  %mul5 = mul nsw i32 %9, 2
  store i32 %mul5, ptr %desiredCapacity, align 4
  br label %if.end7

if.else6:                                         ; preds = %if.else
  store i32 2147483647, ptr %desiredCapacity, align 4
  br label %if.end7

if.end7:                                          ; preds = %if.else6, %if.then4
  br label %if.end8

if.end8:                                          ; preds = %if.end7, %if.then2
  %10 = load ptr, ptr %sink.addr, align 8
  %11 = load i32, ptr %desiredCapacity, align 4
  %arraydecay = getelementptr inbounds [200 x i8], ptr %scratch, i64 0, i64 0
  %vtable = load ptr, ptr %10, align 8
  %vfn = getelementptr inbounds ptr, ptr %vtable, i64 3
  %12 = load ptr, ptr %vfn, align 8
  %call9 = call noundef ptr %12(ptr noundef nonnull align 8 dereferenceable(8) %10, i32 noundef 4, i32 noundef %11, ptr noundef %arraydecay, i32 noundef 200, ptr noundef %capacity)
  store ptr %call9, ptr %buffer, align 8
  %13 = load i32, ptr %capacity, align 4
  %sub10 = sub nsw i32 %13, 3
  store i32 %sub10, ptr %capacity, align 4
  store i32 0, ptr %j, align 4
  br label %for.cond11

for.cond11:                                       ; preds = %do.end76, %if.end8
  %14 = load i32, ptr %i, align 4
  %15 = load i32, ptr %s16Length.addr, align 4
  %cmp12 = icmp slt i32 %14, %15
  br i1 %cmp12, label %land.rhs, label %land.end

land.rhs:                                         ; preds = %for.cond11
  %16 = load i32, ptr %j, align 4
  %17 = load i32, ptr %capacity, align 4
  %cmp13 = icmp slt i32 %16, %17
  br label %land.end

land.end:                                         ; preds = %land.rhs, %for.cond11
  %18 = phi i1 [ false, %for.cond11 ], [ %cmp13, %land.rhs ]
  br i1 %18, label %for.body14, label %for.end

for.body14:                                       ; preds = %land.end
  br label %do.body

do.body:                                          ; preds = %for.body14
  %19 = load ptr, ptr %s16.addr, align 8
  %20 = load i32, ptr %i, align 4
  %inc = add nsw i32 %20, 1
  store i32 %inc, ptr %i, align 4
  %idxprom = sext i32 %20 to i64
  %arrayidx = getelementptr inbounds i16, ptr %19, i64 %idxprom
  %21 = load i16, ptr %arrayidx, align 2
  %conv = zext i16 %21 to i32
  store i32 %conv, ptr %c, align 4
  %22 = load i32, ptr %c, align 4
  %and = and i32 %22, -1024
  %cmp15 = icmp eq i32 %and, 55296
  br i1 %cmp15, label %if.then16, label %if.end22

if.then16:                                        ; preds = %do.body
  %23 = load i32, ptr %c, align 4
  %shl = shl i32 %23, 10
  %24 = load ptr, ptr %s16.addr, align 8
  %25 = load i32, ptr %i, align 4
  %inc17 = add nsw i32 %25, 1
  store i32 %inc17, ptr %i, align 4
  %idxprom18 = sext i32 %25 to i64
  %arrayidx19 = getelementptr inbounds i16, ptr %24, i64 %idxprom18
  %26 = load i16, ptr %arrayidx19, align 2
  %conv20 = zext i16 %26 to i32
  %add = add nsw i32 %shl, %conv20
  %sub21 = sub nsw i32 %add, 56613888
  store i32 %sub21, ptr %c, align 4
  br label %if.end22

if.end22:                                         ; preds = %if.then16, %do.body
  br label %do.end

do.end:                                           ; preds = %if.end22
  br label %do.body23

do.body23:                                        ; preds = %do.end
  %27 = load i32, ptr %c, align 4
  store i32 %27, ptr %__uc, align 4
  %28 = load i32, ptr %__uc, align 4
  %cmp24 = icmp ule i32 %28, 127
  br i1 %cmp24, label %if.then25, label %if.else30

if.then25:                                        ; preds = %do.body23
  %29 = load i32, ptr %__uc, align 4
  %conv26 = trunc i32 %29 to i8
  %30 = load ptr, ptr %buffer, align 8
  %31 = load i32, ptr %j, align 4
  %inc27 = add nsw i32 %31, 1
  store i32 %inc27, ptr %j, align 4
  %idxprom28 = sext i32 %31 to i64
  %arrayidx29 = getelementptr inbounds i8, ptr %30, i64 %idxprom28
  store i8 %conv26, ptr %arrayidx29, align 1
  br label %if.end75

if.else30:                                        ; preds = %do.body23
  %32 = load i32, ptr %__uc, align 4
  %cmp31 = icmp ule i32 %32, 2047
  br i1 %cmp31, label %if.then32, label %if.else37

if.then32:                                        ; preds = %if.else30
  %33 = load i32, ptr %__uc, align 4
  %shr = lshr i32 %33, 6
  %or = or i32 %shr, 192
  %conv33 = trunc i32 %or to i8
  %34 = load ptr, ptr %buffer, align 8
  %35 = load i32, ptr %j, align 4
  %inc34 = add nsw i32 %35, 1
  store i32 %inc34, ptr %j, align 4
  %idxprom35 = sext i32 %35 to i64
  %arrayidx36 = getelementptr inbounds i8, ptr %34, i64 %idxprom35
  store i8 %conv33, ptr %arrayidx36, align 1
  br label %if.end68

if.else37:                                        ; preds = %if.else30
  %36 = load i32, ptr %__uc, align 4
  %cmp38 = icmp ule i32 %36, 65535
  br i1 %cmp38, label %if.then39, label %if.else46

if.then39:                                        ; preds = %if.else37
  %37 = load i32, ptr %__uc, align 4
  %shr40 = lshr i32 %37, 12
  %or41 = or i32 %shr40, 224
  %conv42 = trunc i32 %or41 to i8
  %38 = load ptr, ptr %buffer, align 8
  %39 = load i32, ptr %j, align 4
  %inc43 = add nsw i32 %39, 1
  store i32 %inc43, ptr %j, align 4
  %idxprom44 = sext i32 %39 to i64
  %arrayidx45 = getelementptr inbounds i8, ptr %38, i64 %idxprom44
  store i8 %conv42, ptr %arrayidx45, align 1
  br label %if.end60

if.else46:                                        ; preds = %if.else37
  %40 = load i32, ptr %__uc, align 4
  %shr47 = lshr i32 %40, 18
  %or48 = or i32 %shr47, 240
  %conv49 = trunc i32 %or48 to i8
  %41 = load ptr, ptr %buffer, align 8
  %42 = load i32, ptr %j, align 4
  %inc50 = add nsw i32 %42, 1
  store i32 %inc50, ptr %j, align 4
  %idxprom51 = sext i32 %42 to i64
  %arrayidx52 = getelementptr inbounds i8, ptr %41, i64 %idxprom51
  store i8 %conv49, ptr %arrayidx52, align 1
  %43 = load i32, ptr %__uc, align 4
  %shr53 = lshr i32 %43, 12
  %and54 = and i32 %shr53, 63
  %or55 = or i32 %and54, 128
  %conv56 = trunc i32 %or55 to i8
  %44 = load ptr, ptr %buffer, align 8
  %45 = load i32, ptr %j, align 4
  %inc57 = add nsw i32 %45, 1
  store i32 %inc57, ptr %j, align 4
  %idxprom58 = sext i32 %45 to i64
  %arrayidx59 = getelementptr inbounds i8, ptr %44, i64 %idxprom58
  store i8 %conv56, ptr %arrayidx59, align 1
  br label %if.end60

if.end60:                                         ; preds = %if.else46, %if.then39
  %46 = load i32, ptr %__uc, align 4
  %shr61 = lshr i32 %46, 6
  %and62 = and i32 %shr61, 63
  %or63 = or i32 %and62, 128
  %conv64 = trunc i32 %or63 to i8
  %47 = load ptr, ptr %buffer, align 8
  %48 = load i32, ptr %j, align 4
  %inc65 = add nsw i32 %48, 1
  store i32 %inc65, ptr %j, align 4
  %idxprom66 = sext i32 %48 to i64
  %arrayidx67 = getelementptr inbounds i8, ptr %47, i64 %idxprom66
  store i8 %conv64, ptr %arrayidx67, align 1
  br label %if.end68

if.end68:                                         ; preds = %if.end60, %if.then32
  %49 = load i32, ptr %__uc, align 4
  %and69 = and i32 %49, 63
  %or70 = or i32 %and69, 128
  %conv71 = trunc i32 %or70 to i8
  %50 = load ptr, ptr %buffer, align 8
  %51 = load i32, ptr %j, align 4
  %inc72 = add nsw i32 %51, 1
  store i32 %inc72, ptr %j, align 4
  %idxprom73 = sext i32 %51 to i64
  %arrayidx74 = getelementptr inbounds i8, ptr %50, i64 %idxprom73
  store i8 %conv71, ptr %arrayidx74, align 1
  br label %if.end75

if.end75:                                         ; preds = %if.end68, %if.then25
  br label %do.end76

do.end76:                                         ; preds = %if.end75
  br label %for.cond11, !llvm.loop !4

for.end:                                          ; preds = %land.end
  %52 = load i32, ptr %j, align 4
  %53 = load i32, ptr %s8Length, align 4
  %sub77 = sub nsw i32 2147483647, %53
  %cmp78 = icmp sgt i32 %52, %sub77
  br i1 %cmp78, label %if.then79, label %if.end80

if.then79:                                        ; preds = %for.end
  %54 = load ptr, ptr %errorCode.addr, align 8
  store i32 8, ptr %54, align 4
  store i8 0, ptr %retval, align 1
  br label %return

if.end80:                                         ; preds = %for.end
  %55 = load ptr, ptr %sink.addr, align 8
  %56 = load ptr, ptr %buffer, align 8
  %57 = load i32, ptr %j, align 4
  %vtable81 = load ptr, ptr %55, align 8
  %vfn82 = getelementptr inbounds ptr, ptr %vtable81, i64 2
  %58 = load ptr, ptr %vfn82, align 8
  call void %58(ptr noundef nonnull align 8 dereferenceable(8) %55, ptr noundef %56, i32 noundef %57)
  %59 = load i32, ptr %j, align 4
  %60 = load i32, ptr %s8Length, align 4
  %add83 = add nsw i32 %60, %59
  store i32 %add83, ptr %s8Length, align 4
  br label %for.cond, !llvm.loop !6

for.end84:                                        ; preds = %for.cond
  %61 = load ptr, ptr %edits.addr, align 8
  %cmp85 = icmp ne ptr %61, null
  br i1 %cmp85, label %if.then86, label %if.end87

if.then86:                                        ; preds = %for.end84
  %62 = load ptr, ptr %edits.addr, align 8
  %63 = load i32, ptr %length.addr, align 4
  %64 = load i32, ptr %s8Length, align 4
  call void @_ZN6icu_755Edits10addReplaceEii(ptr noundef nonnull align 8 dereferenceable(232) %62, i32 noundef %63, i32 noundef %64)
  br label %if.end87

if.end87:                                         ; preds = %if.then86, %for.end84
  store i8 1, ptr %retval, align 1
  br label %return

return:                                           ; preds = %if.end87, %if.then79, %if.then
  %65 = load i8, ptr %retval, align 1
  ret i8 %65
}