; Function Attrs: mustprogress uwtable
define noundef signext i8 @_ZN6icu_7512ByteSinkUtil12appendChangeEiPKDsiRNS_8ByteSinkEPNS_5EditsER10UErrorCode(i32 noundef %length, ptr nocapture noundef readonly %s16, i32 noundef %s16Length, ptr noundef nonnull align 8 dereferenceable(8) %sink, ptr noundef %edits, ptr nocapture noundef nonnull align 4 dereferenceable(4) %errorCode) local_unnamed_addr #1 align 2 {
entry:
  %scratch = alloca [200 x i8], align 16
  %capacity = alloca i32, align 4
  %0 = load i32, ptr %errorCode, align 4
  %cmp.i = icmp slt i32 %0, 1
  br i1 %cmp.i, label %for.cond.preheader, label %return

for.cond.preheader:                               ; preds = %entry
  %cmp70 = icmp sgt i32 %s16Length, 0
  br i1 %cmp70, label %for.body, label %for.end84

for.body:                                         ; preds = %for.cond.preheader, %if.end80
  %s8Length.072 = phi i32 [ %add83, %if.end80 ], [ 0, %for.cond.preheader ]
  %i.071 = phi i32 [ %i.1.lcssa78, %if.end80 ], [ 0, %for.cond.preheader ]
  %sub = sub nsw i32 %s16Length, %i.071
  %cmp1 = icmp slt i32 %sub, 715827882
  %mul = mul nsw i32 %sub, 3
  %cmp3 = icmp slt i32 %sub, 1073741823
  %mul5 = shl nuw nsw i32 %sub, 1
  %spec.select = select i1 %cmp3, i32 %mul5, i32 2147483647
  %desiredCapacity.0 = select i1 %cmp1, i32 %mul, i32 %spec.select
  %vtable = load ptr, ptr %sink, align 8
  %vfn = getelementptr inbounds i8, ptr %vtable, i64 24
  %1 = load ptr, ptr %vfn, align 8
  %call9 = call noundef ptr %1(ptr noundef nonnull align 8 dereferenceable(8) %sink, i32 noundef 4, i32 noundef %desiredCapacity.0, ptr noundef nonnull %scratch, i32 noundef 200, ptr noundef nonnull %capacity)
  %2 = load i32, ptr %capacity, align 4
  %sub10 = add nsw i32 %2, -3
  store i32 %sub10, ptr %capacity, align 4
  %invariant.gep = getelementptr i8, ptr %call9, i64 1
  %cmp1366 = icmp sgt i32 %2, 3
  br i1 %cmp1366, label %do.body, label %if.end80

do.body:                                          ; preds = %for.body, %do.end76
  %j.068 = phi i32 [ %j.3, %do.end76 ], [ 0, %for.body ]
  %i.167 = phi i32 [ %i.248, %do.end76 ], [ %i.071, %for.body ]
  %inc = add nsw i32 %i.167, 1
  %idxprom = sext i32 %i.167 to i64
  %arrayidx = getelementptr inbounds i16, ptr %s16, i64 %idxprom
  %3 = load i16, ptr %arrayidx, align 2
  %conv = zext i16 %3 to i32
  %and = and i32 %conv, 64512
  %cmp15 = icmp eq i32 %and, 55296
  br i1 %cmp15, label %if.else37, label %do.body23

do.body23:                                        ; preds = %do.body
  %cmp24 = icmp ult i16 %3, 128
  br i1 %cmp24, label %if.then25, label %if.else30

if.then25:                                        ; preds = %do.body23
  %conv26 = trunc i16 %3 to i8
  %inc27 = add nsw i32 %j.068, 1
  %idxprom28 = sext i32 %j.068 to i64
  %arrayidx29 = getelementptr inbounds i8, ptr %call9, i64 %idxprom28
  store i8 %conv26, ptr %arrayidx29, align 1
  br label %do.end76

if.else30:                                        ; preds = %do.body23
  %cmp31 = icmp ult i16 %3, 2048
  br i1 %cmp31, label %if.then32, label %if.then39

if.then32:                                        ; preds = %if.else30
  %shr = lshr i16 %3, 6
  %4 = trunc i16 %shr to i8
  %conv33 = or disjoint i8 %4, -64
  br label %if.end68

if.else37:                                        ; preds = %do.body
  %shl = shl nuw nsw i32 %conv, 10
  %inc17 = add nsw i32 %i.167, 2
  %idxprom18 = sext i32 %inc to i64
  %arrayidx19 = getelementptr inbounds i16, ptr %s16, i64 %idxprom18
  %5 = load i16, ptr %arrayidx19, align 2
  %conv20 = zext i16 %5 to i32
  %add = add nsw i32 %shl, -56613888
  %sub21 = add nuw nsw i32 %add, %conv20
  %cmp38 = icmp ult i32 %sub21, 65536
  br i1 %cmp38, label %if.then39, label %if.else46

if.then39:                                        ; preds = %if.else30, %if.else37
  %c.0505464 = phi i32 [ %sub21, %if.else37 ], [ %conv, %if.else30 ]
  %i.2495762 = phi i32 [ %inc17, %if.else37 ], [ %inc, %if.else30 ]
  %shr40 = lshr i32 %c.0505464, 12
  %6 = trunc i32 %shr40 to i8
  %conv42 = or disjoint i8 %6, -32
  %inc43 = add nsw i32 %j.068, 1
  %idxprom44 = sext i32 %j.068 to i64
  %arrayidx45 = getelementptr inbounds i8, ptr %call9, i64 %idxprom44
  store i8 %conv42, ptr %arrayidx45, align 1
  br label %if.end60

if.else46:                                        ; preds = %if.else37
  %shr47 = lshr i32 %sub21, 18
  %7 = trunc i32 %shr47 to i8
  %conv49 = or i8 %7, -16
  %idxprom51 = sext i32 %j.068 to i64
  %arrayidx52 = getelementptr inbounds i8, ptr %call9, i64 %idxprom51
  store i8 %conv49, ptr %arrayidx52, align 1
  %shr53 = lshr i32 %sub21, 12
  %8 = trunc i32 %shr53 to i8
  %9 = and i8 %8, 63
  %conv56 = or disjoint i8 %9, -128
  %inc57 = add nsw i32 %j.068, 2
  %arrayidx59 = getelementptr i8, ptr %arrayidx52, i64 1
  store i8 %conv56, ptr %arrayidx59, align 1
  br label %if.end60

if.end60:                                         ; preds = %if.else46, %if.then39
  %c.0505463 = phi i32 [ %c.0505464, %if.then39 ], [ %sub21, %if.else46 ]
  %i.2495761 = phi i32 [ %i.2495762, %if.then39 ], [ %inc17, %if.else46 ]
  %j.1 = phi i32 [ %inc43, %if.then39 ], [ %inc57, %if.else46 ]
  %shr61 = lshr i32 %c.0505463, 6
  %10 = trunc i32 %shr61 to i8
  %11 = and i8 %10, 63
  %conv64 = or disjoint i8 %11, -128
  br label %if.end68

if.end68:                                         ; preds = %if.end60, %if.then32
  %j.1.sink = phi i32 [ %j.1, %if.end60 ], [ %j.068, %if.then32 ]
  %conv64.sink = phi i8 [ %conv64, %if.end60 ], [ %conv33, %if.then32 ]
  %i.24956 = phi i32 [ %i.2495761, %if.end60 ], [ %inc, %if.then32 ]
  %c.05055 = phi i32 [ %c.0505463, %if.end60 ], [ %conv, %if.then32 ]
  %idxprom66 = sext i32 %j.1.sink to i64
  %arrayidx67 = getelementptr inbounds i8, ptr %call9, i64 %idxprom66
  store i8 %conv64.sink, ptr %arrayidx67, align 1
  %12 = trunc i32 %c.05055 to i8
  %13 = and i8 %12, 63
  %conv71 = or disjoint i8 %13, -128
  %inc72 = add nsw i32 %j.1.sink, 2
  %gep = getelementptr i8, ptr %invariant.gep, i64 %idxprom66
  store i8 %conv71, ptr %gep, align 1
  br label %do.end76

do.end76:                                         ; preds = %if.then25, %if.end68
  %i.248 = phi i32 [ %inc, %if.then25 ], [ %i.24956, %if.end68 ]
  %j.3 = phi i32 [ %inc27, %if.then25 ], [ %inc72, %if.end68 ]
  %cmp12 = icmp slt i32 %i.248, %s16Length
  %14 = load i32, ptr %capacity, align 4
  %cmp13 = icmp slt i32 %j.3, %14
  %15 = select i1 %cmp12, i1 %cmp13, i1 false
  br i1 %15, label %do.body, label %for.end, !llvm.loop !4

for.end:                                          ; preds = %do.end76
  %sub77 = sub nsw i32 2147483647, %s8Length.072
  %cmp78 = icmp sgt i32 %j.3, %sub77
  br i1 %cmp78, label %if.then79, label %if.end80

if.then79:                                        ; preds = %for.end
  store i32 8, ptr %errorCode, align 4
  br label %return

if.end80:                                         ; preds = %for.body, %for.end
  %j.0.lcssa79 = phi i32 [ %j.3, %for.end ], [ 0, %for.body ]
  %i.1.lcssa78 = phi i32 [ %i.248, %for.end ], [ %i.071, %for.body ]
  %vtable81 = load ptr, ptr %sink, align 8
  %vfn82 = getelementptr inbounds i8, ptr %vtable81, i64 16
  %16 = load ptr, ptr %vfn82, align 8
  call void %16(ptr noundef nonnull align 8 dereferenceable(8) %sink, ptr noundef %call9, i32 noundef %j.0.lcssa79)
  %add83 = add nsw i32 %j.0.lcssa79, %s8Length.072
  %cmp = icmp slt i32 %i.1.lcssa78, %s16Length
  br i1 %cmp, label %for.body, label %for.end84, !llvm.loop !6

for.end84:                                        ; preds = %if.end80, %for.cond.preheader
  %s8Length.0.lcssa = phi i32 [ 0, %for.cond.preheader ], [ %add83, %if.end80 ]
  %cmp85.not = icmp eq ptr %edits, null
  br i1 %cmp85.not, label %return, label %if.then86

if.then86:                                        ; preds = %for.end84
  call void @_ZN6icu_755Edits10addReplaceEii(ptr noundef nonnull align 8 dereferenceable(232) %edits, i32 noundef %length, i32 noundef %s8Length.0.lcssa)
  br label %return

return:                                           ; preds = %for.end84, %if.then86, %entry, %if.then79
  %retval.0 = phi i8 [ 0, %if.then79 ], [ 0, %entry ], [ 1, %if.then86 ], [ 1, %for.end84 ]
  ret i8 %retval.0
}